; Function Attrs: mustprogress nofree norecurse nosync nounwind willreturn memory(argmem: write) uwtable
define hidden void @_ZNK8FrameMap16make_new_addressE8ByteSize(ptr dead_on_unwind noalias nocapture writable writeonly sret(%class.Address) align 8 %0, ptr nocapture noundef nonnull readnone align 8 dereferenceable(40) %1, i32 noundef %2) local_unnamed_addr #4 align 2 {
  store <4 x i32> <i32 4, i32 -1, i32 -1, i32 -1>, ptr %0, align 8
  %4 = getelementptr inbounds i8, ptr %0, i64 16
  store i32 %2, ptr %4, align 8
  %5 = getelementptr inbounds i8, ptr %0, i64 20
  store i8 0, ptr %5, align 4
  %6 = getelementptr inbounds i8, ptr %0, i64 24
  store ptr getelementptr inbounds inrange(-16, 72) (i8, ptr @_ZTV10Relocation, i64 16), ptr %6, align 8
  %7 = getelementptr inbounds i8, ptr %0, i64 32
  store ptr null, ptr %7, align 8
  %8 = getelementptr inbounds i8, ptr %0, i64 40
  store i32 0, ptr %8, align 8
  ret void
}